; Function Attrs: mustprogress nofree nounwind willreturn memory(argmem: read) uwtable
define noundef zeroext i1 @_Z10IsTextUtf8PKh(ptr noundef readonly captures(none) %0) local_unnamed_addr #6 {
  %2 = tail call i64 @strlen(ptr noundef nonnull dereferenceable(1) %0) #11
  %.not29.i = icmp eq i64 %2, 0
  br i1 %.not29.i, label %_Z10IsTextUtf8PKhm.exit, label %.lr.ph34.i

.loopexit.i:                                      ; preds = %.preheader.i
  br i1 %16, label %_Z10IsTextUtf8PKhm.exit, label %.lr.ph34.i, !llvm.loop !12

.lr.ph34.i:                                       ; preds = %1, %.loopexit.i
  %.01531.i = phi i64 [ %.116.i, %.loopexit.i ], [ %2, %1 ]
  %.01730.i = phi ptr [ %.118.i, %.loopexit.i ], [ %0, %1 ]
  %3 = load i8, ptr %.01730.i, align 1
  %4 = zext i8 %3 to i32
  %.not38.i = icmp sgt i8 %3, -1
  br i1 %.not38.i, label %._crit_edge.i, label %.lr.ph.i

.lr.ph.i:                                         ; preds = %.lr.ph34.i, %.lr.ph.i
  %5 = phi i32 [ %7, %.lr.ph.i ], [ 128, %.lr.ph34.i ]
  %.01328.i = phi i32 [ %6, %.lr.ph.i ], [ 0, %.lr.ph34.i ]
  %6 = add nuw nsw i32 %.01328.i, 1
  %7 = lshr i32 %5, 1
  %8 = icmp samesign ugt i32 %5, 1
  %9 = and i32 %7, %4
  %10 = icmp ne i32 %9, 0
  %11 = and i1 %8, %10
  br i1 %11, label %.lr.ph.i, label %._crit_edge.i, !llvm.loop !13

._crit_edge.i:                                    ; preds = %.lr.ph.i, %.lr.ph34.i
  %.013.lcssa.i = phi i32 [ 0, %.lr.ph34.i ], [ %6, %.lr.ph.i ]
  %12 = icmp ne i32 %.013.lcssa.i, 1
  %13 = icmp ult i32 %.013.lcssa.i, 7
  %or.cond.not.i = and i1 %12, %13
  br i1 %or.cond.not.i, label %.preheader.i, label %_Z10IsTextUtf8PKhm.exit

.preheader.i:                                     ; preds = %._crit_edge.i, %18
  %.017.pn.i = phi ptr [ %.118.i, %18 ], [ %.01730.i, %._crit_edge.i ]
  %.116.in.i = phi i64 [ %.116.i, %18 ], [ %.01531.i, %._crit_edge.i ]
  %.1.i = phi i32 [ %14, %18 ], [ %.013.lcssa.i, %._crit_edge.i ]
  %.118.i = getelementptr inbounds nuw i8, ptr %.017.pn.i, i64 1
  %.116.i = add i64 %.116.in.i, -1
  %14 = add nsw i32 %.1.i, -1
  %15 = icmp sgt i32 %.1.i, 1
  %16 = icmp eq i64 %.116.i, 0
  br i1 %15, label %17, label %.loopexit.i

17:                                               ; preds = %.preheader.i
  br i1 %16, label %_Z10IsTextUtf8PKhm.exit, label %18

18:                                               ; preds = %17
  %19 = load i8, ptr %.118.i, align 1
  %.not21.i = icmp slt i8 %19, -64
  br i1 %.not21.i, label %.preheader.i, label %_Z10IsTextUtf8PKhm.exit, !llvm.loop !14

_Z10IsTextUtf8PKhm.exit:                          ; preds = %.loopexit.i, %._crit_edge.i, %17, %18, %1
  %.not27.i = phi i1 [ true, %1 ], [ false, %18 ], [ false, %17 ], [ %or.cond.not.i, %._crit_edge.i ], [ %or.cond.not.i, %.loopexit.i ]
  ret i1 %.not27.i
}